target datalayout = "e-m:e-p270:32:32-p271:32:32-p272:64:64-i64:64-i128:128-f80:128-n8:16:32:64-S128"
target triple = "x86_64-pc-linux-gnu"

%struct.ws_log_manifest_t = type { %struct.tm, i64, i64 }
%struct.tm = type { i32, i32, i32, i32, i32, i32, i32, i32, i32, i64, ptr }

@stdout = external global ptr, align 8
@stdout_color_enabled = internal global i8 0, align 1
@stderr = external global ptr, align 8
@stderr_color_enabled = internal global i8 0, align 1
@stdout_logging_enabled = internal global i8 0, align 1

; Function Attrs: inlinehint nounwind null_pointer_is_valid sspstrong uwtable
define internal zeroext i1 @console_color_enabled(i32 noundef %0) #13 {
  %2 = alloca i1, align 1
  %3 = alloca i32, align 4
  store i32 %0, ptr %3, align 4
  %4 = load i32, ptr %3, align 4
  %5 = icmp ule i32 %4, 3
  br i1 %5, label %6, label %12

6:                                                ; preds = %1
  %7 = load i8, ptr @stdout_logging_enabled, align 1, !range !6, !noundef !7
  %8 = trunc i8 %7 to i1
  br i1 %8, label %9, label %12

9:                                                ; preds = %6
  %10 = load i8, ptr @stdout_color_enabled, align 1, !range !6, !noundef !7
  %11 = trunc i8 %10 to i1
  store i1 %11, ptr %2, align 1
  br label %15

12:                                               ; preds = %6, %1
  %13 = load i8, ptr @stderr_color_enabled, align 1, !range !6, !noundef !7
  %14 = trunc i8 %13 to i1
  store i1 %14, ptr %2, align 1
  br label %15

15:                                               ; preds = %12, %9
  %16 = load i1, ptr %2, align 1
  ret i1 %16
}

; Function Attrs: inlinehint nounwind null_pointer_is_valid sspstrong uwtable
define internal ptr @console_file(i32 noundef %0) #13 {
  %2 = alloca ptr, align 8
  %3 = alloca i32, align 4
  store i32 %0, ptr %3, align 4
  %4 = load i32, ptr %3, align 4
  %5 = icmp ule i32 %4, 3
  br i1 %5, label %6, label %11

6:                                                ; preds = %1
  %7 = load i8, ptr @stdout_logging_enabled, align 1, !range !6, !noundef !7
  %8 = trunc i8 %7 to i1
  br i1 %8, label %9, label %11

9:                                                ; preds = %6
  %10 = load ptr, ptr @stdout, align 8
  store ptr %10, ptr %2, align 8
  br label %13

11:                                               ; preds = %6, %1
  %12 = load ptr, ptr @stderr, align 8
  store ptr %12, ptr %2, align 8
  br label %13

13:                                               ; preds = %11, %9
  %14 = load ptr, ptr %2, align 8
  ret ptr %14
}

; Function Attrs: null_pointer_is_valid sspstrong uwtable
define void @ws_log_console_writer(ptr noundef %0, i32 noundef %1, ptr noundef %2, i64 noundef %3, ptr noundef %4, ptr noundef %5, ptr noundef %6, ptr noundef %7) #1 {
  %9 = alloca ptr, align 8
  %10 = alloca i32, align 4
  %11 = alloca ptr, align 8
  %12 = alloca i64, align 8
  %13 = alloca ptr, align 8
  %14 = alloca ptr, align 8
  %15 = alloca ptr, align 8
  %16 = alloca ptr, align 8
  store ptr %0, ptr %9, align 8
  store i32 %1, ptr %10, align 4
  store ptr %2, ptr %11, align 8
  store i64 %3, ptr %12, align 8
  store ptr %4, ptr %13, align 8
  store ptr %5, ptr %14, align 8
  store ptr %6, ptr %15, align 8
  store ptr %7, ptr %16, align 8
  %17 = load i32, ptr %10, align 4
  %18 = call ptr @console_file(i32 noundef %17)
  %19 = load i32, ptr %10, align 4
  %20 = call zeroext i1 @console_color_enabled(i32 noundef %19)
  %21 = load ptr, ptr %14, align 8
  %22 = getelementptr inbounds nuw %struct.ws_log_manifest_t, ptr %21, i32 0, i32 0
  %23 = load ptr, ptr %14, align 8
  %24 = getelementptr inbounds nuw %struct.ws_log_manifest_t, ptr %23, i32 0, i32 1
  %25 = load i64, ptr %24, align 8
  %26 = load ptr, ptr %14, align 8
  %27 = getelementptr inbounds nuw %struct.ws_log_manifest_t, ptr %26, i32 0, i32 2
  %28 = load i64, ptr %27, align 8
  %29 = load ptr, ptr %9, align 8
  %30 = load i32, ptr %10, align 4
  %31 = load ptr, ptr %11, align 8
  %32 = load i64, ptr %12, align 8
  %33 = load ptr, ptr %13, align 8
  %34 = load ptr, ptr %15, align 8
  %35 = load ptr, ptr %16, align 8
  call void @log_write_do_work(ptr noundef %18, i1 noundef zeroext %20, ptr noundef %22, i64 noundef %25, i64 noundef %28, ptr noundef %29, i32 noundef %30, ptr noundef %31, i64 noundef %32, ptr noundef %33, ptr noundef %34, ptr noundef %35)
  ret void
}