; Function Attrs: null_pointer_is_valid sspstrong uwtable
define void @ws_log_console_writer(ptr noundef %0, i32 noundef %1, ptr noundef %2, i64 noundef %3, ptr noundef %4, ptr noundef captures(address_is_null) %5, ptr noundef %6, ptr noundef %7) local_unnamed_addr #1 {
  %9 = icmp ult i32 %1, 4
  br i1 %9, label %10, label %console_file.exit

10:                                               ; preds = %8
  %11 = load i8, ptr @stdout_logging_enabled, align 1, !range !8, !noundef !9
  %12 = trunc nuw i8 %11 to i1
  %.0.i14 = load ptr, ptr @stdout, align 8
  %.0.i19 = load ptr, ptr @stderr, align 8
  %.0.i17 = select i1 %12, ptr %.0.i14, ptr %.0.i19
  %spec.select = select i1 %12, ptr @stdout_color_enabled, ptr @stderr_color_enabled
  br label %console_color_enabled.exit

console_file.exit:                                ; preds = %8
  %.0.i = load ptr, ptr @stderr, align 8
  br label %console_color_enabled.exit

console_color_enabled.exit:                       ; preds = %10, %console_file.exit
  %.0.i16 = phi ptr [ %.0.i, %console_file.exit ], [ %.0.i17, %10 ]
  %.0.in.in.i = phi ptr [ @stderr_color_enabled, %console_file.exit ], [ %spec.select, %10 ]
  %.0.in.i11 = load i8, ptr %.0.in.in.i, align 1, !range !8, !noundef !9
  %.0.i12 = trunc nuw i8 %.0.in.i11 to i1
  %13 = getelementptr inbounds nuw i8, ptr %5, i64 56
  %14 = load i64, ptr %13, align 8
  %15 = getelementptr inbounds nuw i8, ptr %5, i64 64
  %16 = load i64, ptr %15, align 8
  tail call fastcc void @log_write_do_work(ptr noundef %.0.i16, i1 noundef zeroext %.0.i12, ptr noundef %5, i64 noundef %14, i64 noundef %16, ptr noundef %0, i32 noundef %1, ptr noundef %2, i64 noundef %3, ptr noundef %4, ptr noundef %6, ptr noundef %7)
  ret void
}